; Function Attrs: mustprogress nofree norecurse nosync nounwind willreturn memory(argmem: read) uwtable
define internal range(i32 0, 16777216) i32 @getpix_24(ptr noundef readonly captures(none) %0) #5 {
  %2 = load i16, ptr %0, align 1
  %3 = zext i16 %2 to i32
  %4 = getelementptr inbounds nuw i8, ptr %0, i64 2
  %5 = load i8, ptr %4, align 1
  %6 = zext i8 %5 to i32
  %7 = shl nuw nsw i32 %6, 16
  %8 = or disjoint i32 %7, %3
  ret i32 %8
}